target datalayout = "e-m:e-p270:32:32-p271:32:32-p272:64:64-i64:64-i128:128-f80:128-n8:16:32:64-S128"
target triple = "x86_64-pc-linux-gnu"

; Function Attrs: mustprogress uwtable
define internal noundef i32 @_ZL9b_countrzP9lua_State(ptr noundef %0) #0 {
  %2 = alloca ptr, align 8
  %3 = alloca i32, align 4
  %4 = alloca i32, align 4
  %5 = alloca i32, align 4
  %6 = alloca i32, align 4
  store ptr %0, ptr %2, align 8, !tbaa !4
  call void @llvm.lifetime.start.p0(i64 4, ptr %3) #4
  %7 = load ptr, ptr %2, align 8, !tbaa !4
  %8 = call noundef i32 @_Z18luaL_checkunsignedP9lua_Statei(ptr noundef %7, i32 noundef 1)
  store i32 %8, ptr %3, align 4, !tbaa !9
  call void @llvm.lifetime.start.p0(i64 4, ptr %4) #4
  store i32 32, ptr %4, align 4, !tbaa !9
  call void @llvm.lifetime.start.p0(i64 4, ptr %5) #4
  store i32 0, ptr %5, align 4, !tbaa !9
  br label %9

9:                                                ; preds = %22, %1
  %10 = load i32, ptr %5, align 4, !tbaa !9
  %11 = icmp slt i32 %10, 32
  br i1 %11, label %13, label %12

12:                                               ; preds = %9
  store i32 2, ptr %6, align 4
  br label %25

13:                                               ; preds = %9
  %14 = load i32, ptr %3, align 4, !tbaa !9
  %15 = load i32, ptr %5, align 4, !tbaa !9
  %16 = shl i32 1, %15
  %17 = and i32 %14, %16
  %18 = icmp ne i32 %17, 0
  br i1 %18, label %19, label %21

19:                                               ; preds = %13
  %20 = load i32, ptr %5, align 4, !tbaa !9
  store i32 %20, ptr %4, align 4, !tbaa !9
  store i32 2, ptr %6, align 4
  br label %25

21:                                               ; preds = %13
  br label %22

22:                                               ; preds = %21
  %23 = load i32, ptr %5, align 4, !tbaa !9
  %24 = add nsw i32 %23, 1
  store i32 %24, ptr %5, align 4, !tbaa !9
  br label %9, !llvm.loop !15

25:                                               ; preds = %19, %12
  call void @llvm.lifetime.end.p0(i64 4, ptr %5) #4
  br label %26

26:                                               ; preds = %25
  %27 = load ptr, ptr %2, align 8, !tbaa !4
  %28 = load i32, ptr %4, align 4, !tbaa !9
  call void @_Z16lua_pushunsignedP9lua_Statej(ptr noundef %27, i32 noundef %28)
  store i32 1, ptr %6, align 4
  call void @llvm.lifetime.end.p0(i64 4, ptr %4) #4
  call void @llvm.lifetime.end.p0(i64 4, ptr %3) #4
  ret i32 1
}